target datalayout = "e-m:e-p270:32:32-p271:32:32-p272:64:64-i64:64-f80:128-n8:16:32:64-S128"
target triple = "x86_64-pc-linux-gnu"

@.str = private unnamed_addr constant [9 x i8] c"%d %d %d\00", align 1
@.str.1 = private unnamed_addr constant [4 x i8] c"%d\0A\00", align 1

; Function Attrs: noinline nounwind uwtable
define dso_local i32 @main() #0 {
  %1 = alloca i32, align 4
  %2 = alloca [5 x i32], align 16
  %3 = alloca [5 x i32], align 16
  %4 = alloca [5 x i32], align 16
  %5 = alloca [5 x i32], align 16
  %6 = alloca [5 x i32], align 16
  %7 = alloca i32, align 4
  store i32 0, i32* %1, align 4
  store i32 1, i32* %7, align 4
  br label %8

8:                                                ; preds = %22, %0
  %9 = load i32, i32* %7, align 4
  %10 = icmp sle i32 %9, 5
  br i1 %10, label %11, label %25

11:                                               ; preds = %8
  %12 = load i32, i32* %7, align 4
  %13 = sext i32 %12 to i64
  %14 = getelementptr inbounds [5 x i32], [5 x i32]* %2, i64 0, i64 %13
  %15 = load i32, i32* %7, align 4
  %16 = sext i32 %15 to i64
  %17 = getelementptr inbounds [5 x i32], [5 x i32]* %3, i64 0, i64 %16
  %18 = load i32, i32* %7, align 4
  %19 = sext i32 %18 to i64
  %20 = getelementptr inbounds [5 x i32], [5 x i32]* %4, i64 0, i64 %19
  %21 = call i32 (i8*, ...) @__isoc99_scanf(i8* getelementptr inbounds ([9 x i8], [9 x i8]* @.str, i64 0, i64 0), i32* %14, i32* %17, i32* %20)
  br label %22

22:                                               ; preds = %11
  %23 = load i32, i32* %7, align 4
  %24 = add nsw i32 %23, 1
  store i32 %24, i32* %7, align 4
  br label %8

25:                                               ; preds = %8
  store i32 1, i32* %7, align 4
  br label %26

26:                                               ; preds = %359, %25
  %27 = load i32, i32* %7, align 4
  %28 = icmp sle i32 %27, 5
  br i1 %28, label %29, label %362

29:                                               ; preds = %26
  %30 = load i32, i32* %7, align 4
  %31 = sext i32 %30 to i64
  %32 = getelementptr inbounds [5 x i32], [5 x i32]* %2, i64 0, i64 %31
  %33 = load i32, i32* %32, align 4
  %34 = srem i32 %33, 4
  %35 = icmp eq i32 %34, 0
  br i1 %35, label %36, label %43

36:                                               ; preds = %29
  %37 = load i32, i32* %7, align 4
  %38 = sext i32 %37 to i64
  %39 = getelementptr inbounds [5 x i32], [5 x i32]* %2, i64 0, i64 %38
  %40 = load i32, i32* %39, align 4
  %41 = srem i32 %40, 100
  %42 = icmp ne i32 %41, 0
  br i1 %42, label %50, label %43

43:                                               ; preds = %36, %29
  %44 = load i32, i32* %7, align 4
  %45 = sext i32 %44 to i64
  %46 = getelementptr inbounds [5 x i32], [5 x i32]* %2, i64 0, i64 %45
  %47 = load i32, i32* %46, align 4
  %48 = srem i32 %47, 400
  %49 = icmp eq i32 %48, 0
  br i1 %49, label %50, label %54

50:                                               ; preds = %43, %36
  %51 = load i32, i32* %7, align 4
  %52 = sext i32 %51 to i64
  %53 = getelementptr inbounds [5 x i32], [5 x i32]* %6, i64 0, i64 %52
  store i32 1, i32* %53, align 4
  br label %58

54:                                               ; preds = %43
  %55 = load i32, i32* %7, align 4
  %56 = sext i32 %55 to i64
  %57 = getelementptr inbounds [5 x i32], [5 x i32]* %6, i64 0, i64 %56
  store i32 0, i32* %57, align 4
  br label %58

58:                                               ; preds = %54, %50
  %59 = load i32, i32* %7, align 4
  %60 = sext i32 %59 to i64
  %61 = getelementptr inbounds [5 x i32], [5 x i32]* %3, i64 0, i64 %60
  %62 = load i32, i32* %61, align 4
  %63 = icmp eq i32 %62, 1
  br i1 %63, label %64, label %72

64:                                               ; preds = %58
  %65 = load i32, i32* %7, align 4
  %66 = sext i32 %65 to i64
  %67 = getelementptr inbounds [5 x i32], [5 x i32]* %4, i64 0, i64 %66
  %68 = load i32, i32* %67, align 4
  %69 = load i32, i32* %7, align 4
  %70 = sext i32 %69 to i64
  %71 = getelementptr inbounds [5 x i32], [5 x i32]* %5, i64 0, i64 %70
  store i32 %68, i32* %71, align 4
  br label %353

72:                                               ; preds = %58
  %73 = load i32, i32* %7, align 4
  %74 = sext i32 %73 to i64
  %75 = getelementptr inbounds [5 x i32], [5 x i32]* %3, i64 0, i64 %74
  %76 = load i32, i32* %75, align 4
  %77 = icmp eq i32 %76, 2
  br i1 %77, label %78, label %87

78:                                               ; preds = %72
  %79 = load i32, i32* %7, align 4
  %80 = sext i32 %79 to i64
  %81 = getelementptr inbounds [5 x i32], [5 x i32]* %4, i64 0, i64 %80
  %82 = load i32, i32* %81, align 4
  %83 = add nsw i32 %82, 31
  %84 = load i32, i32* %7, align 4
  %85 = sext i32 %84 to i64
  %86 = getelementptr inbounds [5 x i32], [5 x i32]* %5, i64 0, i64 %85
  store i32 %83, i32* %86, align 4
  br label %352

87:                                               ; preds = %72
  %88 = load i32, i32* %7, align 4
  %89 = sext i32 %88 to i64
  %90 = getelementptr inbounds [5 x i32], [5 x i32]* %3, i64 0, i64 %89
  %91 = load i32, i32* %90, align 4
  %92 = icmp eq i32 %91, 3
  br i1 %92, label %93, label %108

93:                                               ; preds = %87
  %94 = load i32, i32* %7, align 4
  %95 = sext i32 %94 to i64
  %96 = getelementptr inbounds [5 x i32], [5 x i32]* %4, i64 0, i64 %95
  %97 = load i32, i32* %96, align 4
  %98 = add nsw i32 %97, 31
  %99 = add nsw i32 %98, 28
  %100 = load i32, i32* %7, align 4
  %101 = sext i32 %100 to i64
  %102 = getelementptr inbounds [5 x i32], [5 x i32]* %6, i64 0, i64 %101
  %103 = load i32, i32* %102, align 4
  %104 = add nsw i32 %99, %103
  %105 = load i32, i32* %7, align 4
  %106 = sext i32 %105 to i64
  %107 = getelementptr inbounds [5 x i32], [5 x i32]* %5, i64 0, i64 %106
  store i32 %104, i32* %107, align 4
  br label %351

108:                                              ; preds = %87
  %109 = load i32, i32* %7, align 4
  %110 = sext i32 %109 to i64
  %111 = getelementptr inbounds [5 x i32], [5 x i32]* %3, i64 0, i64 %110
  %112 = load i32, i32* %111, align 4
  %113 = icmp eq i32 %112, 4
  br i1 %113, label %114, label %130

114:                                              ; preds = %108
  %115 = load i32, i32* %7, align 4
  %116 = sext i32 %115 to i64
  %117 = getelementptr inbounds [5 x i32], [5 x i32]* %4, i64 0, i64 %116
  %118 = load i32, i32* %117, align 4
  %119 = add nsw i32 %118, 31
  %120 = add nsw i32 %119, 28
  %121 = add nsw i32 %120, 31
  %122 = load i32, i32* %7, align 4
  %123 = sext i32 %122 to i64
  %124 = getelementptr inbounds [5 x i32], [5 x i32]* %6, i64 0, i64 %123
  %125 = load i32, i32* %124, align 4
  %126 = add nsw i32 %121, %125
  %127 = load i32, i32* %7, align 4
  %128 = sext i32 %127 to i64
  %129 = getelementptr inbounds [5 x i32], [5 x i32]* %5, i64 0, i64 %128
  store i32 %126, i32* %129, align 4
  br label %350

130:                                              ; preds = %108
  %131 = load i32, i32* %7, align 4
  %132 = sext i32 %131 to i64
  %133 = getelementptr inbounds [5 x i32], [5 x i32]* %3, i64 0, i64 %132
  %134 = load i32, i32* %133, align 4
  %135 = icmp eq i32 %134, 5
  br i1 %135, label %136, label %153

136:                                              ; preds = %130
  %137 = load i32, i32* %7, align 4
  %138 = sext i32 %137 to i64
  %139 = getelementptr inbounds [5 x i32], [5 x i32]* %4, i64 0, i64 %138
  %140 = load i32, i32* %139, align 4
  %141 = add nsw i32 %140, 31
  %142 = add nsw i32 %141, 28
  %143 = add nsw i32 %142, 31
  %144 = add nsw i32 %143, 30
  %145 = load i32, i32* %7, align 4
  %146 = sext i32 %145 to i64
  %147 = getelementptr inbounds [5 x i32], [5 x i32]* %6, i64 0, i64 %146
  %148 = load i32, i32* %147, align 4
  %149 = add nsw i32 %144, %148
  %150 = load i32, i32* %7, align 4
  %151 = sext i32 %150 to i64
  %152 = getelementptr inbounds [5 x i32], [5 x i32]* %5, i64 0, i64 %151
  store i32 %149, i32* %152, align 4
  br label %349

153:                                              ; preds = %130
  %154 = load i32, i32* %7, align 4
  %155 = sext i32 %154 to i64
  %156 = getelementptr inbounds [5 x i32], [5 x i32]* %3, i64 0, i64 %155
  %157 = load i32, i32* %156, align 4
  %158 = icmp eq i32 %157, 6
  br i1 %158, label %159, label %177

159:                                              ; preds = %153
  %160 = load i32, i32* %7, align 4
  %161 = sext i32 %160 to i64
  %162 = getelementptr inbounds [5 x i32], [5 x i32]* %4, i64 0, i64 %161
  %163 = load i32, i32* %162, align 4
  %164 = add nsw i32 %163, 31
  %165 = add nsw i32 %164, 28
  %166 = add nsw i32 %165, 31
  %167 = add nsw i32 %166, 30
  %168 = add nsw i32 %167, 31
  %169 = load i32, i32* %7, align 4
  %170 = sext i32 %169 to i64
  %171 = getelementptr inbounds [5 x i32], [5 x i32]* %6, i64 0, i64 %170
  %172 = load i32, i32* %171, align 4
  %173 = add nsw i32 %168, %172
  %174 = load i32, i32* %7, align 4
  %175 = sext i32 %174 to i64
  %176 = getelementptr inbounds [5 x i32], [5 x i32]* %5, i64 0, i64 %175
  store i32 %173, i32* %176, align 4
  br label %348

177:                                              ; preds = %153
  %178 = load i32, i32* %7, align 4
  %179 = sext i32 %178 to i64
  %180 = getelementptr inbounds [5 x i32], [5 x i32]* %3, i64 0, i64 %179
  %181 = load i32, i32* %180, align 4
  %182 = icmp eq i32 %181, 7
  br i1 %182, label %183, label %202

183:                                              ; preds = %177
  %184 = load i32, i32* %7, align 4
  %185 = sext i32 %184 to i64
  %186 = getelementptr inbounds [5 x i32], [5 x i32]* %4, i64 0, i64 %185
  %187 = load i32, i32* %186, align 4
  %188 = add nsw i32 %187, 31
  %189 = add nsw i32 %188, 28
  %190 = add nsw i32 %189, 31
  %191 = add nsw i32 %190, 30
  %192 = add nsw i32 %191, 31
  %193 = add nsw i32 %192, 30
  %194 = load i32, i32* %7, align 4
  %195 = sext i32 %194 to i64
  %196 = getelementptr inbounds [5 x i32], [5 x i32]* %6, i64 0, i64 %195
  %197 = load i32, i32* %196, align 4
  %198 = add nsw i32 %193, %197
  %199 = load i32, i32* %7, align 4
  %200 = sext i32 %199 to i64
  %201 = getelementptr inbounds [5 x i32], [5 x i32]* %5, i64 0, i64 %200
  store i32 %198, i32* %201, align 4
  br label %347

202:                                              ; preds = %177
  %203 = load i32, i32* %7, align 4
  %204 = sext i32 %203 to i64
  %205 = getelementptr inbounds [5 x i32], [5 x i32]* %3, i64 0, i64 %204
  %206 = load i32, i32* %205, align 4
  %207 = icmp eq i32 %206, 8
  br i1 %207, label %208, label %228

208:                                              ; preds = %202
  %209 = load i32, i32* %7, align 4
  %210 = sext i32 %209 to i64
  %211 = getelementptr inbounds [5 x i32], [5 x i32]* %4, i64 0, i64 %210
  %212 = load i32, i32* %211, align 4
  %213 = add nsw i32 %212, 31
  %214 = add nsw i32 %213, 28
  %215 = add nsw i32 %214, 31
  %216 = add nsw i32 %215, 30
  %217 = add nsw i32 %216, 31
  %218 = add nsw i32 %217, 30
  %219 = add nsw i32 %218, 31
  %220 = load i32, i32* %7, align 4
  %221 = sext i32 %220 to i64
  %222 = getelementptr inbounds [5 x i32], [5 x i32]* %6, i64 0, i64 %221
  %223 = load i32, i32* %222, align 4
  %224 = add nsw i32 %219, %223
  %225 = load i32, i32* %7, align 4
  %226 = sext i32 %225 to i64
  %227 = getelementptr inbounds [5 x i32], [5 x i32]* %5, i64 0, i64 %226
  store i32 %224, i32* %227, align 4
  br label %346

228:                                              ; preds = %202
  %229 = load i32, i32* %7, align 4
  %230 = sext i32 %229 to i64
  %231 = getelementptr inbounds [5 x i32], [5 x i32]* %3, i64 0, i64 %230
  %232 = load i32, i32* %231, align 4
  %233 = icmp eq i32 %232, 9
  br i1 %233, label %234, label %255

234:                                              ; preds = %228
  %235 = load i32, i32* %7, align 4
  %236 = sext i32 %235 to i64
  %237 = getelementptr inbounds [5 x i32], [5 x i32]* %4, i64 0, i64 %236
  %238 = load i32, i32* %237, align 4
  %239 = add nsw i32 %238, 31
  %240 = add nsw i32 %239, 28
  %241 = add nsw i32 %240, 31
  %242 = add nsw i32 %241, 30
  %243 = add nsw i32 %242, 31
  %244 = add nsw i32 %243, 30
  %245 = add nsw i32 %244, 31
  %246 = add nsw i32 %245, 31
  %247 = load i32, i32* %7, align 4
  %248 = sext i32 %247 to i64
  %249 = getelementptr inbounds [5 x i32], [5 x i32]* %6, i64 0, i64 %248
  %250 = load i32, i32* %249, align 4
  %251 = add nsw i32 %246, %250
  %252 = load i32, i32* %7, align 4
  %253 = sext i32 %252 to i64
  %254 = getelementptr inbounds [5 x i32], [5 x i32]* %5, i64 0, i64 %253
  store i32 %251, i32* %254, align 4
  br label %345

255:                                              ; preds = %228
  %256 = load i32, i32* %7, align 4
  %257 = sext i32 %256 to i64
  %258 = getelementptr inbounds [5 x i32], [5 x i32]* %3, i64 0, i64 %257
  %259 = load i32, i32* %258, align 4
  %260 = icmp eq i32 %259, 10
  br i1 %260, label %261, label %283

261:                                              ; preds = %255
  %262 = load i32, i32* %7, align 4
  %263 = sext i32 %262 to i64
  %264 = getelementptr inbounds [5 x i32], [5 x i32]* %4, i64 0, i64 %263
  %265 = load i32, i32* %264, align 4
  %266 = add nsw i32 %265, 31
  %267 = add nsw i32 %266, 28
  %268 = add nsw i32 %267, 31
  %269 = add nsw i32 %268, 30
  %270 = add nsw i32 %269, 31
  %271 = add nsw i32 %270, 30
  %272 = add nsw i32 %271, 31
  %273 = add nsw i32 %272, 31
  %274 = add nsw i32 %273, 30
  %275 = load i32, i32* %7, align 4
  %276 = sext i32 %275 to i64
  %277 = getelementptr inbounds [5 x i32], [5 x i32]* %6, i64 0, i64 %276
  %278 = load i32, i32* %277, align 4
  %279 = add nsw i32 %274, %278
  %280 = load i32, i32* %7, align 4
  %281 = sext i32 %280 to i64
  %282 = getelementptr inbounds [5 x i32], [5 x i32]* %5, i64 0, i64 %281
  store i32 %279, i32* %282, align 4
  br label %344

283:                                              ; preds = %255
  %284 = load i32, i32* %7, align 4
  %285 = sext i32 %284 to i64
  %286 = getelementptr inbounds [5 x i32], [5 x i32]* %3, i64 0, i64 %285
  %287 = load i32, i32* %286, align 4
  %288 = icmp eq i32 %287, 11
  br i1 %288, label %289, label %312

289:                                              ; preds = %283
  %290 = load i32, i32* %7, align 4
  %291 = sext i32 %290 to i64
  %292 = getelementptr inbounds [5 x i32], [5 x i32]* %4, i64 0, i64 %291
  %293 = load i32, i32* %292, align 4
  %294 = add nsw i32 %293, 31
  %295 = add nsw i32 %294, 28
  %296 = add nsw i32 %295, 31
  %297 = add nsw i32 %296, 30
  %298 = add nsw i32 %297, 31
  %299 = add nsw i32 %298, 30
  %300 = add nsw i32 %299, 31
  %301 = add nsw i32 %300, 31
  %302 = add nsw i32 %301, 30
  %303 = add nsw i32 %302, 31
  %304 = load i32, i32* %7, align 4
  %305 = sext i32 %304 to i64
  %306 = getelementptr inbounds [5 x i32], [5 x i32]* %6, i64 0, i64 %305
  %307 = load i32, i32* %306, align 4
  %308 = add nsw i32 %303, %307
  %309 = load i32, i32* %7, align 4
  %310 = sext i32 %309 to i64
  %311 = getelementptr inbounds [5 x i32], [5 x i32]* %5, i64 0, i64 %310
  store i32 %308, i32* %311, align 4
  br label %343

312:                                              ; preds = %283
  %313 = load i32, i32* %7, align 4
  %314 = sext i32 %313 to i64
  %315 = getelementptr inbounds [5 x i32], [5 x i32]* %3, i64 0, i64 %314
  %316 = load i32, i32* %315, align 4
  %317 = icmp eq i32 %316, 12
  br i1 %317, label %318, label %342

318:                                              ; preds = %312
  %319 = load i32, i32* %7, align 4
  %320 = sext i32 %319 to i64
  %321 = getelementptr inbounds [5 x i32], [5 x i32]* %4, i64 0, i64 %320
  %322 = load i32, i32* %321, align 4
  %323 = add nsw i32 %322, 31
  %324 = add nsw i32 %323, 28
  %325 = add nsw i32 %324, 31
  %326 = add nsw i32 %325, 30
  %327 = add nsw i32 %326, 31
  %328 = add nsw i32 %327, 30
  %329 = add nsw i32 %328, 31
  %330 = add nsw i32 %329, 31
  %331 = add nsw i32 %330, 30
  %332 = add nsw i32 %331, 31
  %333 = add nsw i32 %332, 30
  %334 = load i32, i32* %7, align 4
  %335 = sext i32 %334 to i64
  %336 = getelementptr inbounds [5 x i32], [5 x i32]* %6, i64 0, i64 %335
  %337 = load i32, i32* %336, align 4
  %338 = add nsw i32 %333, %337
  %339 = load i32, i32* %7, align 4
  %340 = sext i32 %339 to i64
  %341 = getelementptr inbounds [5 x i32], [5 x i32]* %5, i64 0, i64 %340
  store i32 %338, i32* %341, align 4
  br label %342

342:                                              ; preds = %318, %312
  br label %343

343:                                              ; preds = %342, %289
  br label %344

344:                                              ; preds = %343, %261
  br label %345

345:                                              ; preds = %344, %234
  br label %346

346:                                              ; preds = %345, %208
  br label %347

347:                                              ; preds = %346, %183
  br label %348

348:                                              ; preds = %347, %159
  br label %349

349:                                              ; preds = %348, %136
  br label %350

350:                                              ; preds = %349, %114
  br label %351

351:                                              ; preds = %350, %93
  br label %352

352:                                              ; preds = %351, %78
  br label %353

353:                                              ; preds = %352, %64
  %354 = load i32, i32* %7, align 4
  %355 = sext i32 %354 to i64
  %356 = getelementptr inbounds [5 x i32], [5 x i32]* %5, i64 0, i64 %355
  %357 = load i32, i32* %356, align 4
  %358 = call i32 (i8*, ...) @printf(i8* getelementptr inbounds ([4 x i8], [4 x i8]* @.str.1, i64 0, i64 0), i32 %357)
  br label %359

359:                                              ; preds = %353
  %360 = load i32, i32* %7, align 4
  %361 = add nsw i32 %360, 1
  store i32 %361, i32* %7, align 4
  br label %26

362:                                              ; preds = %26
  %363 = load i32, i32* %1, align 4
  ret i32 %363
}